target datalayout = "e-m:e-p270:32:32-p271:32:32-p272:64:64-i64:64-i128:128-f80:128-n8:16:32:64-S128"
target triple = "x86_64-pc-linux-gnu"

%"class.LIEF::ELF::DynamicEntry" = type { %"class.LIEF::Object", i64, i64 }
%"class.LIEF::Object" = type { ptr }

; Function Attrs: mustprogress nounwind uwtable
define linkonce_odr hidden void @_ZN4LIEF3ELF12DynamicEntry5valueEm(ptr noundef nonnull align 8 dereferenceable(24) %0, i64 noundef %1) #1 comdat align 2 {
  %3 = alloca ptr, align 8
  %4 = alloca i64, align 8
  store ptr %0, ptr %3, align 8, !tbaa !12
  store i64 %1, ptr %4, align 8, !tbaa !10
  %5 = load ptr, ptr %3, align 8
  %6 = load i64, ptr %4, align 8, !tbaa !10
  %7 = getelementptr inbounds nuw %"class.LIEF::ELF::DynamicEntry", ptr %5, i32 0, i32 2
  store i64 %6, ptr %7, align 8, !tbaa !18
  ret void
}

; Function Attrs: mustprogress nounwind uwtable
define linkonce_odr hidden noundef i64 @_ZNK4LIEF3ELF12DynamicEntry5valueEv(ptr noundef nonnull align 8 dereferenceable(24) %0) #1 comdat align 2 {
  %2 = alloca ptr, align 8
  store ptr %0, ptr %2, align 8, !tbaa !12
  %3 = load ptr, ptr %2, align 8
  %4 = getelementptr inbounds nuw %"class.LIEF::ELF::DynamicEntry", ptr %3, i32 0, i32 2
  %5 = load i64, ptr %4, align 8, !tbaa !18
  ret i64 %5
}

; Function Attrs: mustprogress nounwind uwtable
define linkonce_odr hidden noundef i64 @_ZNK4LIEF3ELF12DynamicEntry3tagEv(ptr noundef nonnull align 8 dereferenceable(24) %0) #1 comdat align 2 {
  %2 = alloca ptr, align 8
  store ptr %0, ptr %2, align 8, !tbaa !12
  %3 = load ptr, ptr %2, align 8
  %4 = getelementptr inbounds nuw %"class.LIEF::ELF::DynamicEntry", ptr %3, i32 0, i32 1
  %5 = load i64, ptr %4, align 8, !tbaa !14
  ret i64 %5
}

; Function Attrs: mustprogress nounwind uwtable
define void @_ZN4LIEF3ELF17DynamicEntryFlags3addENS1_4FLAGE(ptr noundef nonnull align 8 dereferenceable(24) %0, i64 noundef %1) #1 align 2 {
  %3 = alloca ptr, align 8
  %4 = alloca i64, align 8
  %5 = alloca i64, align 8
  %6 = alloca i32, align 4
  %7 = alloca i64, align 8
  store ptr %0, ptr %3, align 8, !tbaa !3
  store i64 %1, ptr %4, align 8, !tbaa !8
  %8 = load ptr, ptr %3, align 8
  %9 = call noundef i64 @_ZNK4LIEF3ELF12DynamicEntry3tagEv(ptr noundef nonnull align 8 dereferenceable(24) %8)
  %10 = icmp eq i64 %9, 30
  br i1 %10, label %11, label %21

11:                                               ; preds = %2
  call void @llvm.lifetime.start.p0(i64 8, ptr %5) #16
  %12 = load i64, ptr %4, align 8, !tbaa !8
  store i64 %12, ptr %5, align 8, !tbaa !10
  %13 = load i64, ptr %5, align 8, !tbaa !10
  %14 = icmp ule i64 4294967296, %13
  br i1 %14, label %15, label %16

15:                                               ; preds = %11
  store i32 1, ptr %6, align 4
  br label %20

16:                                               ; preds = %11
  %17 = call noundef i64 @_ZNK4LIEF3ELF12DynamicEntry5valueEv(ptr noundef nonnull align 8 dereferenceable(24) %8)
  %18 = load i64, ptr %5, align 8, !tbaa !10
  %19 = or i64 %17, %18
  call void @_ZN4LIEF3ELF12DynamicEntry5valueEm(ptr noundef nonnull align 8 dereferenceable(24) %8, i64 noundef %19)
  store i32 1, ptr %6, align 4
  br label %20

20:                                               ; preds = %16, %15
  call void @llvm.lifetime.end.p0(i64 8, ptr %5) #16
  br label %37

21:                                               ; preds = %2
  %22 = call noundef i64 @_ZNK4LIEF3ELF12DynamicEntry3tagEv(ptr noundef nonnull align 8 dereferenceable(24) %8)
  %23 = icmp eq i64 %22, 1879048187
  br i1 %23, label %24, label %36

24:                                               ; preds = %21
  call void @llvm.lifetime.start.p0(i64 8, ptr %7) #16
  %25 = load i64, ptr %4, align 8, !tbaa !8
  store i64 %25, ptr %7, align 8, !tbaa !10
  %26 = load i64, ptr %7, align 8, !tbaa !10
  %27 = icmp ult i64 %26, 4294967296
  br i1 %27, label %28, label %29

28:                                               ; preds = %24
  store i32 1, ptr %6, align 4
  br label %35

29:                                               ; preds = %24
  %30 = load i64, ptr %7, align 8, !tbaa !10
  %31 = sub i64 %30, 4294967296
  store i64 %31, ptr %7, align 8, !tbaa !10
  %32 = call noundef i64 @_ZNK4LIEF3ELF12DynamicEntry5valueEv(ptr noundef nonnull align 8 dereferenceable(24) %8)
  %33 = load i64, ptr %7, align 8, !tbaa !10
  %34 = or i64 %32, %33
  call void @_ZN4LIEF3ELF12DynamicEntry5valueEm(ptr noundef nonnull align 8 dereferenceable(24) %8, i64 noundef %34)
  store i32 1, ptr %6, align 4
  br label %35

35:                                               ; preds = %29, %28
  call void @llvm.lifetime.end.p0(i64 8, ptr %7) #16
  br label %37

36:                                               ; preds = %21
  br label %37

37:                                               ; preds = %36, %35, %20
  ret void
}