; Function Attrs: mustprogress nofree norecurse nosync nounwind willreturn memory(argmem: readwrite) uwtable
define void @_ZN4LIEF3ELF17DynamicEntryFlags3addENS1_4FLAGE(ptr noundef nonnull align 8 captures(none) dereferenceable(24) %0, i64 noundef %1) local_unnamed_addr #3 align 2 {
  %3 = getelementptr inbounds nuw i8, ptr %0, i64 8
  %4 = load i64, ptr %3, align 8, !tbaa !3
  %5 = icmp eq i64 %4, 30
  br i1 %5, label %6, label %8

6:                                                ; preds = %2
  %7 = icmp ugt i64 %1, 4294967295
  br i1 %7, label %16, label %.sink.split

8:                                                ; preds = %2
  %9 = icmp ne i64 %4, 1879048187
  %10 = icmp ult i64 %1, 4294967296
  %or.cond = or i1 %10, %9
  br i1 %or.cond, label %16, label %11

11:                                               ; preds = %8
  %12 = add i64 %1, -4294967296
  br label %.sink.split

.sink.split:                                      ; preds = %6, %11
  %.sink9 = phi i64 [ %12, %11 ], [ %1, %6 ]
  %13 = getelementptr inbounds nuw i8, ptr %0, i64 16
  %14 = load i64, ptr %13, align 8, !tbaa !10
  %15 = or i64 %14, %.sink9
  store i64 %15, ptr %13, align 8, !tbaa !10
  br label %16

16:                                               ; preds = %.sink.split, %6, %8
  ret void
}